; ModuleID = '19/1270.c'
source_filename = "19/1270.c"
target datalayout = "e-m:e-p270:32:32-p271:32:32-p272:64:64-i64:64-f80:128-n8:16:32:64-S128"
target triple = "x86_64-pc-linux-gnu"

@.str = private unnamed_addr constant [3 x i8] c"%s\00", align 1
@.str.1 = private unnamed_addr constant [2 x i8] c" \00", align 1

; Function Attrs: noinline nounwind uwtable
define dso_local void @main() #0 {
  %1 = alloca i8*, align 8
  %2 = alloca i8*, align 8
  %3 = alloca i8*, align 8
  %4 = alloca i8*, align 8
  %5 = alloca i8*, align 8
  %6 = call noalias i8* @malloc(i64 100) #4
  store i8* %6, i8** %1, align 8
  %7 = call noalias i8* @malloc(i64 100) #4
  store i8* %7, i8** %2, align 8
  %8 = call noalias i8* @malloc(i64 100) #4
  store i8* %8, i8** %3, align 8
  %9 = call noalias i8* @malloc(i64 100) #4
  store i8* %9, i8** %4, align 8
  %10 = load i8*, i8** %1, align 8
  %11 = call i32 (i8*, ...) bitcast (i32 (...)* @gets to i32 (i8*, ...)*)(i8* %10)
  %12 = load i8*, i8** %2, align 8
  %13 = call i32 (i8*, ...) bitcast (i32 (...)* @gets to i32 (i8*, ...)*)(i8* %12)
  %14 = load i8*, i8** %3, align 8
  %15 = call i32 (i8*, ...) bitcast (i32 (...)* @gets to i32 (i8*, ...)*)(i8* %14)
  %16 = load i8*, i8** %1, align 8
  %17 = load i8*, i8** %1, align 8
  %18 = call i64 @strlen(i8* %17) #5
  %19 = getelementptr inbounds i8, i8* %16, i64 %18
  store i8* %19, i8** %5, align 8
  br label %20

20:                                               ; preds = %43, %0
  %21 = load i8*, i8** %1, align 8
  %22 = load i8*, i8** %4, align 8
  %23 = call i32 (i8*, i8*, ...) @__isoc99_sscanf(i8* %21, i8* getelementptr inbounds ([3 x i8], [3 x i8]* @.str, i64 0, i64 0), i8* %22) #4
  %24 = load i8*, i8** %4, align 8
  %25 = load i8*, i8** %2, align 8
  %26 = call i32 @strcmp(i8* %24, i8* %25) #5
  %27 = icmp eq i32 %26, 0
  br i1 %27, label %28, label %31

28:                                               ; preds = %20
  %29 = load i8*, i8** %3, align 8
  %30 = call i32 (i8*, ...) @printf(i8* getelementptr inbounds ([3 x i8], [3 x i8]* @.str, i64 0, i64 0), i8* %29)
  br label %34

31:                                               ; preds = %20
  %32 = load i8*, i8** %4, align 8
  %33 = call i32 (i8*, ...) @printf(i8* getelementptr inbounds ([3 x i8], [3 x i8]* @.str, i64 0, i64 0), i8* %32)
  br label %34

34:                                               ; preds = %31, %28
  %35 = load i8*, i8** %1, align 8
  %36 = load i8*, i8** %4, align 8
  %37 = call i64 @strlen(i8* %36) #5
  %38 = getelementptr inbounds i8, i8* %35, i64 %37
  store i8* %38, i8** %1, align 8
  %39 = load i8*, i8** %1, align 8
  %40 = load i8*, i8** %5, align 8
  %41 = icmp uge i8* %39, %40
  br i1 %41, label %42, label %43

42:                                               ; preds = %34
  br label %47

43:                                               ; preds = %34
  %44 = load i8*, i8** %1, align 8
  %45 = getelementptr inbounds i8, i8* %44, i32 1
  store i8* %45, i8** %1, align 8
  %46 = call i32 (i8*, ...) @printf(i8* getelementptr inbounds ([2 x i8], [2 x i8]* @.str.1, i64 0, i64 0))
  br label %20

47:                                               ; preds = %42
  ret void
}

; Function Attrs: nounwind
declare dso_local noalias i8* @malloc(i64) #1

declare dso_local i32 @gets(...) #2

; Function Attrs: nounwind readonly
declare dso_local i64 @strlen(i8*) #3

; Function Attrs: nounwind
declare dso_local i32 @__isoc99_sscanf(i8*, i8*, ...) #1

; Function Attrs: nounwind readonly
declare dso_local i32 @strcmp(i8*, i8*) #3

declare dso_local i32 @printf(i8*, ...) #2


!llvm.module.flags = !{!0}
!llvm.ident = !{!1}

!0 = !{i32 1, !"wchar_size", i32 4}
!1 = !{!"clang version 10.0.0-4ubuntu1 "}
